target datalayout = "e-m:e-p270:32:32-p271:32:32-p272:64:64-i64:64-i128:128-f80:128-n8:16:32:64-S128"
target triple = "x86_64-pc-linux-gnu"

%struct.index_state = type { ptr, i32, i32, i32, i32, ptr, ptr, ptr, %struct.cache_time, i8, i32, %struct.hashmap, %struct.hashmap, %struct.object_id, ptr, ptr, ptr, ptr, ptr, ptr, ptr }
%struct.cache_time = type { i32, i32 }
%struct.hashmap = type { ptr, ptr, ptr, i32, i32, i32, i32, i8 }
%struct.object_id = type { [32 x i8], i32 }

; Function Attrs: nounwind uwtable
define dso_local void @move_index_extensions(ptr noundef %0, ptr noundef %1) #0 {
  %3 = alloca ptr, align 8
  %4 = alloca ptr, align 8
  store ptr %0, ptr %3, align 8, !tbaa !4
  store ptr %1, ptr %4, align 8, !tbaa !4
  %5 = load ptr, ptr %4, align 8, !tbaa !4
  %6 = getelementptr inbounds nuw %struct.index_state, ptr %5, i32 0, i32 14
  %7 = load ptr, ptr %6, align 8, !tbaa !158
  %8 = load ptr, ptr %3, align 8, !tbaa !4
  %9 = getelementptr inbounds nuw %struct.index_state, ptr %8, i32 0, i32 14
  store ptr %7, ptr %9, align 8, !tbaa !158
  %10 = load ptr, ptr %4, align 8, !tbaa !4
  %11 = getelementptr inbounds nuw %struct.index_state, ptr %10, i32 0, i32 14
  store ptr null, ptr %11, align 8, !tbaa !158
  %12 = load ptr, ptr %4, align 8, !tbaa !4
  %13 = getelementptr inbounds nuw %struct.index_state, ptr %12, i32 0, i32 6
  %14 = load ptr, ptr %13, align 8, !tbaa !207
  %15 = load ptr, ptr %3, align 8, !tbaa !4
  %16 = getelementptr inbounds nuw %struct.index_state, ptr %15, i32 0, i32 6
  store ptr %14, ptr %16, align 8, !tbaa !207
  %17 = load ptr, ptr %4, align 8, !tbaa !4
  %18 = getelementptr inbounds nuw %struct.index_state, ptr %17, i32 0, i32 6
  store ptr null, ptr %18, align 8, !tbaa !207
  ret void
}