; Function Attrs: mustprogress nofree norecurse nosync nounwind willreturn memory(argmem: readwrite) uwtable
define dso_local void @move_index_extensions(ptr noundef writeonly captures(none) initializes((32, 40), (200, 208)) %0, ptr noundef captures(none) %1) local_unnamed_addr #20 {
  %3 = getelementptr inbounds nuw i8, ptr %1, i64 200
  %4 = load ptr, ptr %3, align 8, !tbaa !135
  %5 = getelementptr inbounds nuw i8, ptr %0, i64 200
  store ptr %4, ptr %5, align 8, !tbaa !135
  store ptr null, ptr %3, align 8, !tbaa !135
  %6 = getelementptr inbounds nuw i8, ptr %1, i64 32
  %7 = load ptr, ptr %6, align 8, !tbaa !133
  %8 = getelementptr inbounds nuw i8, ptr %0, i64 32
  store ptr %7, ptr %8, align 8, !tbaa !133
  store ptr null, ptr %6, align 8, !tbaa !133
  ret void
}